; ModuleID = '47/3899.c'
source_filename = "47/3899.c"
target datalayout = "e-m:e-p270:32:32-p271:32:32-p272:64:64-i64:64-f80:128-n8:16:32:64-S128"
target triple = "x86_64-pc-linux-gnu"

@.str = private unnamed_addr constant [3 x i8] c"%d\00", align 1
@.str.1 = private unnamed_addr constant [4 x i8] c"%d \00", align 1

; Function Attrs: noinline nounwind uwtable
define dso_local i32 @main() #0 {
  %1 = alloca i32, align 4
  %2 = alloca i32, align 4
  %3 = alloca i32, align 4
  %4 = alloca i32, align 4
  %5 = alloca i32, align 4
  %6 = alloca [100 x i32], align 16
  store i32 0, i32* %1, align 4
  %7 = call i32 (i8*, ...) @__isoc99_scanf(i8* getelementptr inbounds ([3 x i8], [3 x i8]* @.str, i64 0, i64 0), i32* %2)
  store i32 0, i32* %3, align 4
  br label %8

8:                                                ; preds = %17, %0
  %9 = load i32, i32* %3, align 4
  %10 = load i32, i32* %2, align 4
  %11 = icmp slt i32 %9, %10
  br i1 %11, label %12, label %20

12:                                               ; preds = %8
  %13 = load i32, i32* %3, align 4
  %14 = sext i32 %13 to i64
  %15 = getelementptr inbounds [100 x i32], [100 x i32]* %6, i64 0, i64 %14
  %16 = call i32 (i8*, ...) @__isoc99_scanf(i8* getelementptr inbounds ([3 x i8], [3 x i8]* @.str, i64 0, i64 0), i32* %15)
  br label %17

17:                                               ; preds = %12
  %18 = load i32, i32* %3, align 4
  %19 = add nsw i32 %18, 1
  store i32 %19, i32* %3, align 4
  br label %8

20:                                               ; preds = %8
  %21 = load i32, i32* %2, align 4
  %22 = srem i32 %21, 2
  %23 = icmp eq i32 %22, 0
  br i1 %23, label %24, label %54

24:                                               ; preds = %20
  %25 = load i32, i32* %2, align 4
  %26 = sub nsw i32 %25, 1
  store i32 %26, i32* %4, align 4
  store i32 0, i32* %3, align 4
  br label %27

27:                                               ; preds = %48, %24
  %28 = load i32, i32* %3, align 4
  %29 = load i32, i32* %2, align 4
  %30 = sdiv i32 %29, 2
  %31 = icmp slt i32 %28, %30
  br i1 %31, label %32, label %53

32:                                               ; preds = %27
  %33 = load i32, i32* %3, align 4
  %34 = sext i32 %33 to i64
  %35 = getelementptr inbounds [100 x i32], [100 x i32]* %6, i64 0, i64 %34
  %36 = load i32, i32* %35, align 4
  store i32 %36, i32* %5, align 4
  %37 = load i32, i32* %4, align 4
  %38 = sext i32 %37 to i64
  %39 = getelementptr inbounds [100 x i32], [100 x i32]* %6, i64 0, i64 %38
  %40 = load i32, i32* %39, align 4
  %41 = load i32, i32* %3, align 4
  %42 = sext i32 %41 to i64
  %43 = getelementptr inbounds [100 x i32], [100 x i32]* %6, i64 0, i64 %42
  store i32 %40, i32* %43, align 4
  %44 = load i32, i32* %5, align 4
  %45 = load i32, i32* %4, align 4
  %46 = sext i32 %45 to i64
  %47 = getelementptr inbounds [100 x i32], [100 x i32]* %6, i64 0, i64 %46
  store i32 %44, i32* %47, align 4
  br label %48

48:                                               ; preds = %32
  %49 = load i32, i32* %3, align 4
  %50 = add nsw i32 %49, 1
  store i32 %50, i32* %3, align 4
  %51 = load i32, i32* %4, align 4
  %52 = add nsw i32 %51, -1
  store i32 %52, i32* %4, align 4
  br label %27

53:                                               ; preds = %27
  br label %54

54:                                               ; preds = %53, %20
  %55 = load i32, i32* %2, align 4
  %56 = srem i32 %55, 2
  %57 = icmp ne i32 %56, 0
  br i1 %57, label %58, label %89

58:                                               ; preds = %54
  %59 = load i32, i32* %2, align 4
  %60 = sub nsw i32 %59, 1
  store i32 %60, i32* %4, align 4
  store i32 0, i32* %3, align 4
  br label %61

61:                                               ; preds = %83, %58
  %62 = load i32, i32* %3, align 4
  %63 = load i32, i32* %2, align 4
  %64 = sub nsw i32 %63, 1
  %65 = sdiv i32 %64, 2
  %66 = icmp slt i32 %62, %65
  br i1 %66, label %67, label %88

67:                                               ; preds = %61
  %68 = load i32, i32* %3, align 4
  %69 = sext i32 %68 to i64
  %70 = getelementptr inbounds [100 x i32], [100 x i32]* %6, i64 0, i64 %69
  %71 = load i32, i32* %70, align 4
  store i32 %71, i32* %5, align 4
  %72 = load i32, i32* %4, align 4
  %73 = sext i32 %72 to i64
  %74 = getelementptr inbounds [100 x i32], [100 x i32]* %6, i64 0, i64 %73
  %75 = load i32, i32* %74, align 4
  %76 = load i32, i32* %3, align 4
  %77 = sext i32 %76 to i64
  %78 = getelementptr inbounds [100 x i32], [100 x i32]* %6, i64 0, i64 %77
  store i32 %75, i32* %78, align 4
  %79 = load i32, i32* %5, align 4
  %80 = load i32, i32* %4, align 4
  %81 = sext i32 %80 to i64
  %82 = getelementptr inbounds [100 x i32], [100 x i32]* %6, i64 0, i64 %81
  store i32 %79, i32* %82, align 4
  br label %83

83:                                               ; preds = %67
  %84 = load i32, i32* %3, align 4
  %85 = add nsw i32 %84, 1
  store i32 %85, i32* %3, align 4
  %86 = load i32, i32* %4, align 4
  %87 = add nsw i32 %86, -1
  store i32 %87, i32* %4, align 4
  br label %61

88:                                               ; preds = %61
  br label %89

89:                                               ; preds = %88, %54
  store i32 0, i32* %3, align 4
  br label %90

90:                                               ; preds = %101, %89
  %91 = load i32, i32* %3, align 4
  %92 = load i32, i32* %2, align 4
  %93 = sub nsw i32 %92, 1
  %94 = icmp slt i32 %91, %93
  br i1 %94, label %95, label %104

95:                                               ; preds = %90
  %96 = load i32, i32* %3, align 4
  %97 = sext i32 %96 to i64
  %98 = getelementptr inbounds [100 x i32], [100 x i32]* %6, i64 0, i64 %97
  %99 = load i32, i32* %98, align 4
  %100 = call i32 (i8*, ...) @printf(i8* getelementptr inbounds ([4 x i8], [4 x i8]* @.str.1, i64 0, i64 0), i32 %99)
  br label %101

101:                                              ; preds = %95
  %102 = load i32, i32* %3, align 4
  %103 = add nsw i32 %102, 1
  store i32 %103, i32* %3, align 4
  br label %90

104:                                              ; preds = %90
  %105 = load i32, i32* %2, align 4
  %106 = sub nsw i32 %105, 1
  %107 = sext i32 %106 to i64
  %108 = getelementptr inbounds [100 x i32], [100 x i32]* %6, i64 0, i64 %107
  %109 = load i32, i32* %108, align 4
  %110 = call i32 (i8*, ...) @printf(i8* getelementptr inbounds ([3 x i8], [3 x i8]* @.str, i64 0, i64 0), i32 %109)
  ret i32 0
}

declare dso_local i32 @__isoc99_scanf(i8*, ...) #1

declare dso_local i32 @printf(i8*, ...) #1


!llvm.module.flags = !{!0}
!llvm.ident = !{!1}

!0 = !{i32 1, !"wchar_size", i32 4}
!1 = !{!"clang version 10.0.0-4ubuntu1 "}
